target datalayout = "e-m:e-p270:32:32-p271:32:32-p272:64:64-i64:64-i128:128-f80:128-n8:16:32:64-S128"
target triple = "x86_64-pc-linux-gnu"

%struct._GPtrArray = type { ptr, i32 }
%struct._GHashTableIter = type { ptr, ptr, ptr, i32, i32, ptr }
%struct._header_field_info = type { ptr, ptr, i32, i32, ptr, i64, ptr, i32, i32, i32, i32, ptr }
%struct.df_reference_t = type { ptr, ptr, i32 }

@.str.61 = private unnamed_addr constant [12 x i8] c" ${@%s} = {\00", align 1
@.str.62 = private unnamed_addr constant [11 x i8] c" ${%s} = {\00", align 1
@.str.63 = private unnamed_addr constant [3 x i8] c", \00", align 1
@.str.64 = private unnamed_addr constant [8 x i8] c"%s <%s>\00", align 1
@.str.65 = private unnamed_addr constant [3 x i8] c"}\0A\00", align 1

; Function Attrs: nounwind uwtable
define internal void @append_references(ptr noundef %0, ptr noundef %1, i1 noundef zeroext %2) #0 {
  %4 = alloca ptr, align 8
  %5 = alloca ptr, align 8
  %6 = alloca i8, align 1
  %7 = alloca %struct._GHashTableIter, align 8
  %8 = alloca ptr, align 8
  %9 = alloca ptr, align 8
  %10 = alloca ptr, align 8
  %11 = alloca i32, align 4
  %12 = alloca ptr, align 8
  %13 = alloca ptr, align 8
  %14 = alloca ptr, align 8
  store ptr %0, ptr %4, align 8
  store ptr %1, ptr %5, align 8
  %15 = zext i1 %2 to i8
  store i8 %15, ptr %6, align 1
  %16 = load ptr, ptr %5, align 8
  call void @g_hash_table_iter_init(ptr noundef %7, ptr noundef %16)
  br label %17

17:                                               ; preds = %67, %3
  %18 = call i32 @g_hash_table_iter_next(ptr noundef %7, ptr noundef %8, ptr noundef %9)
  %19 = icmp ne i32 %18, 0
  br i1 %19, label %20, label %69

20:                                               ; preds = %17
  %21 = load ptr, ptr %8, align 8
  %22 = getelementptr inbounds %struct._header_field_info, ptr %21, i32 0, i32 1
  %23 = load ptr, ptr %22, align 8
  store ptr %23, ptr %12, align 8
  %24 = load ptr, ptr %9, align 8
  store ptr %24, ptr %13, align 8
  %25 = load i8, ptr %6, align 1
  %26 = trunc i8 %25 to i1
  br i1 %26, label %27, label %30

27:                                               ; preds = %20
  %28 = load ptr, ptr %4, align 8
  %29 = load ptr, ptr %12, align 8
  call void (ptr, ptr, ...) @wmem_strbuf_append_printf(ptr noundef %28, ptr noundef @.str.61, ptr noundef %29)
  br label %33

30:                                               ; preds = %20
  %31 = load ptr, ptr %4, align 8
  %32 = load ptr, ptr %12, align 8
  call void (ptr, ptr, ...) @wmem_strbuf_append_printf(ptr noundef %31, ptr noundef @.str.62, ptr noundef %32)
  br label %33

33:                                               ; preds = %30, %27
  store i32 0, ptr %11, align 4
  br label %34

34:                                               ; preds = %64, %33
  %35 = load i32, ptr %11, align 4
  %36 = load ptr, ptr %13, align 8
  %37 = getelementptr inbounds %struct._GPtrArray, ptr %36, i32 0, i32 1
  %38 = load i32, ptr %37, align 8
  %39 = icmp ult i32 %35, %38
  br i1 %39, label %40, label %67

40:                                               ; preds = %34
  %41 = load i32, ptr %11, align 4
  %42 = icmp ne i32 %41, 0
  br i1 %42, label %43, label %45

43:                                               ; preds = %40
  %44 = load ptr, ptr %4, align 8
  call void @wmem_strbuf_append(ptr noundef %44, ptr noundef @.str.63)
  br label %45

45:                                               ; preds = %43, %40
  %46 = load ptr, ptr %13, align 8
  %47 = getelementptr inbounds %struct._GPtrArray, ptr %46, i32 0, i32 0
  %48 = load ptr, ptr %47, align 8
  %49 = load i32, ptr %11, align 4
  %50 = zext i32 %49 to i64
  %51 = getelementptr ptr, ptr %48, i64 %50
  %52 = load ptr, ptr %51, align 8
  store ptr %52, ptr %14, align 8
  %53 = load ptr, ptr %14, align 8
  %54 = getelementptr inbounds %struct.df_reference_t, ptr %53, i32 0, i32 1
  %55 = load ptr, ptr %54, align 8
  %56 = call ptr @fvalue_to_string_repr(ptr noundef null, ptr noundef %55, i32 noundef 1, i32 noundef 0)
  store ptr %56, ptr %10, align 8
  %57 = load ptr, ptr %4, align 8
  %58 = load ptr, ptr %10, align 8
  %59 = load ptr, ptr %14, align 8
  %60 = getelementptr inbounds %struct.df_reference_t, ptr %59, i32 0, i32 1
  %61 = load ptr, ptr %60, align 8
  %62 = call ptr @fvalue_type_name(ptr noundef %61)
  call void (ptr, ptr, ...) @wmem_strbuf_append_printf(ptr noundef %57, ptr noundef @.str.64, ptr noundef %58, ptr noundef %62)
  %63 = load ptr, ptr %10, align 8
  call void @g_free(ptr noundef %63)
  br label %64

64:                                               ; preds = %45
  %65 = load i32, ptr %11, align 4
  %66 = add i32 %65, 1
  store i32 %66, ptr %11, align 4
  br label %34, !llvm.loop !6

67:                                               ; preds = %34
  %68 = load ptr, ptr %4, align 8
  call void @wmem_strbuf_append(ptr noundef %68, ptr noundef @.str.65)
  br label %17, !llvm.loop !7

69:                                               ; preds = %17
  ret void
}