; Function Attrs: nounwind uwtable
define internal fastcc void @append_references(ptr noundef %0, ptr noundef %1, i1 noundef zeroext %2) unnamed_addr #2 {
  %4 = alloca %struct._GHashTableIter, align 8
  %5 = alloca ptr, align 8
  %6 = alloca ptr, align 8
  call void @g_hash_table_iter_init(ptr noundef nonnull %4, ptr noundef %1) #11
  %7 = call i32 @g_hash_table_iter_next(ptr noundef nonnull %4, ptr noundef nonnull %5, ptr noundef nonnull %6) #11
  %.not20 = icmp eq i32 %7, 0
  br i1 %.not20, label %._crit_edge23, label %.lr.ph22

.lr.ph22:                                         ; preds = %3
  br i1 %2, label %.lr.ph22.split.us, label %.lr.ph22.split

.lr.ph22.split.us:                                ; preds = %.lr.ph22, %._crit_edge.us
  %8 = load ptr, ptr %5, align 8
  %9 = getelementptr inbounds nuw i8, ptr %8, i64 8
  %10 = load ptr, ptr %9, align 8
  %11 = load ptr, ptr %6, align 8
  call void (ptr, ptr, ...) @wmem_strbuf_append_printf(ptr noundef %0, ptr noundef nonnull @.str.61, ptr noundef %10) #11
  %12 = getelementptr inbounds nuw i8, ptr %11, i64 8
  %13 = load i32, ptr %12, align 8
  %.not25 = icmp eq i32 %13, 0
  br i1 %.not25, label %._crit_edge.us, label %.lr.ph.us

._crit_edge.us:                                   ; preds = %16, %.lr.ph22.split.us
  call void @wmem_strbuf_append(ptr noundef %0, ptr noundef nonnull @.str.65) #11
  %14 = call i32 @g_hash_table_iter_next(ptr noundef nonnull %4, ptr noundef nonnull %5, ptr noundef nonnull %6) #11
  %.not.us = icmp eq i32 %14, 0
  br i1 %.not.us, label %._crit_edge23, label %.lr.ph22.split.us, !llvm.loop !8

.lr.ph.us:                                        ; preds = %.lr.ph22.split.us, %16
  %indvars.iv28 = phi i64 [ %indvars.iv.next29, %16 ], [ 0, %.lr.ph22.split.us ]
  %.not18.us = icmp eq i64 %indvars.iv28, 0
  br i1 %.not18.us, label %16, label %15

15:                                               ; preds = %.lr.ph.us
  call void @wmem_strbuf_append(ptr noundef %0, ptr noundef nonnull @.str.63) #11
  br label %16

16:                                               ; preds = %15, %.lr.ph.us
  %17 = load ptr, ptr %11, align 8
  %18 = getelementptr ptr, ptr %17, i64 %indvars.iv28
  %19 = load ptr, ptr %18, align 8
  %20 = getelementptr inbounds nuw i8, ptr %19, i64 8
  %21 = load ptr, ptr %20, align 8
  %22 = call ptr @fvalue_to_string_repr(ptr noundef null, ptr noundef %21, i32 noundef 1, i32 noundef 0) #11
  %23 = load ptr, ptr %20, align 8
  %24 = call ptr @fvalue_type_name(ptr noundef %23) #11
  call void (ptr, ptr, ...) @wmem_strbuf_append_printf(ptr noundef %0, ptr noundef nonnull @.str.64, ptr noundef %22, ptr noundef %24) #11
  call void @g_free(ptr noundef %22) #11
  %indvars.iv.next29 = add nuw nsw i64 %indvars.iv28, 1
  %25 = load i32, ptr %12, align 8
  %26 = zext i32 %25 to i64
  %27 = icmp samesign ult i64 %indvars.iv.next29, %26
  br i1 %27, label %.lr.ph.us, label %._crit_edge.us, !llvm.loop !9

.lr.ph22.split:                                   ; preds = %.lr.ph22, %._crit_edge
  %28 = load ptr, ptr %5, align 8
  %29 = getelementptr inbounds nuw i8, ptr %28, i64 8
  %30 = load ptr, ptr %29, align 8
  %31 = load ptr, ptr %6, align 8
  call void (ptr, ptr, ...) @wmem_strbuf_append_printf(ptr noundef %0, ptr noundef nonnull @.str.62, ptr noundef %30) #11
  %32 = getelementptr inbounds nuw i8, ptr %31, i64 8
  %33 = load i32, ptr %32, align 8
  %.not24 = icmp eq i32 %33, 0
  br i1 %.not24, label %._crit_edge, label %.lr.ph

.lr.ph:                                           ; preds = %.lr.ph22.split, %35
  %indvars.iv = phi i64 [ %indvars.iv.next, %35 ], [ 0, %.lr.ph22.split ]
  %.not18 = icmp eq i64 %indvars.iv, 0
  br i1 %.not18, label %35, label %34

34:                                               ; preds = %.lr.ph
  call void @wmem_strbuf_append(ptr noundef %0, ptr noundef nonnull @.str.63) #11
  br label %35

35:                                               ; preds = %34, %.lr.ph
  %36 = load ptr, ptr %31, align 8
  %37 = getelementptr ptr, ptr %36, i64 %indvars.iv
  %38 = load ptr, ptr %37, align 8
  %39 = getelementptr inbounds nuw i8, ptr %38, i64 8
  %40 = load ptr, ptr %39, align 8
  %41 = call ptr @fvalue_to_string_repr(ptr noundef null, ptr noundef %40, i32 noundef 1, i32 noundef 0) #11
  %42 = load ptr, ptr %39, align 8
  %43 = call ptr @fvalue_type_name(ptr noundef %42) #11
  call void (ptr, ptr, ...) @wmem_strbuf_append_printf(ptr noundef %0, ptr noundef nonnull @.str.64, ptr noundef %41, ptr noundef %43) #11
  call void @g_free(ptr noundef %41) #11
  %indvars.iv.next = add nuw nsw i64 %indvars.iv, 1
  %44 = load i32, ptr %32, align 8
  %45 = zext i32 %44 to i64
  %46 = icmp samesign ult i64 %indvars.iv.next, %45
  br i1 %46, label %.lr.ph, label %._crit_edge, !llvm.loop !9

._crit_edge:                                      ; preds = %35, %.lr.ph22.split
  call void @wmem_strbuf_append(ptr noundef %0, ptr noundef nonnull @.str.65) #11
  %47 = call i32 @g_hash_table_iter_next(ptr noundef nonnull %4, ptr noundef nonnull %5, ptr noundef nonnull %6) #11
  %.not = icmp eq i32 %47, 0
  br i1 %.not, label %._crit_edge23, label %.lr.ph22.split, !llvm.loop !8

._crit_edge23:                                    ; preds = %._crit_edge, %._crit_edge.us, %3
  ret void
}